; Function Attrs: mustprogress nofree norecurse nosync nounwind willreturn memory(argmem: write) uwtable
define internal void @callReplySimpleStr(ptr noundef writeonly captures(none) initializes((16, 36), (40, 56)) %0, ptr noundef %1, i64 noundef %2, ptr noundef %3, i64 noundef %4) #7 {
  %6 = getelementptr inbounds nuw i8, ptr %0, i64 32
  store i32 0, ptr %6, align 8, !tbaa !15
  %7 = getelementptr inbounds nuw i8, ptr %0, i64 16
  store ptr %3, ptr %7, align 8, !tbaa !25
  %8 = getelementptr inbounds nuw i8, ptr %0, i64 24
  store i64 %4, ptr %8, align 8, !tbaa !34
  %9 = getelementptr inbounds nuw i8, ptr %0, i64 40
  store i64 %2, ptr %9, align 8, !tbaa !18
  %10 = getelementptr inbounds nuw i8, ptr %0, i64 48
  store ptr %1, ptr %10, align 8, !tbaa !19
  ret void
}